; Function Attrs: mustprogress uwtable
define dso_local noundef i64 @_ZNK4onnx18OperatorSetIdProto12ByteSizeLongEv(ptr noundef nonnull align 8 dereferenceable(40) %0) unnamed_addr #3 align 2 {
  %2 = getelementptr inbounds nuw i8, ptr %0, i64 16
  %3 = load i32, ptr %2, align 8, !tbaa !50
  %4 = and i32 %3, 3
  %.not = icmp eq i32 %4, 0
  br i1 %.not, label %35, label %5

5:                                                ; preds = %1
  %6 = and i32 %3, 1
  %.not11 = icmp eq i32 %6, 0
  br i1 %.not11, label %22, label %7

7:                                                ; preds = %5
  %8 = getelementptr inbounds nuw i8, ptr %0, i64 24
  %9 = load ptr, ptr %8, align 8, !tbaa !12
  %10 = getelementptr inbounds nuw i8, ptr %9, i64 8
  %11 = load i64, ptr %10, align 8, !tbaa !96
  %12 = trunc i64 %11 to i32
  %13 = or i32 %12, 1
  %14 = tail call range(i32 0, 33) i32 @llvm.ctlz.i32(i32 %13, i1 true)
  %15 = xor i32 %14, 31
  %16 = mul nuw nsw i32 %15, 9
  %17 = add nuw nsw i32 %16, 73
  %18 = lshr i32 %17, 6
  %19 = zext nneg i32 %18 to i64
  %20 = add i64 %11, 1
  %21 = add i64 %20, %19
  br label %22

22:                                               ; preds = %7, %5
  %.1 = phi i64 [ %21, %7 ], [ 0, %5 ]
  %23 = and i32 %3, 2
  %.not12 = icmp eq i32 %23, 0
  br i1 %.not12, label %35, label %24

24:                                               ; preds = %22
  %25 = getelementptr inbounds nuw i8, ptr %0, i64 32
  %26 = load i64, ptr %25, align 8, !tbaa !42
  %27 = or i64 %26, 1
  %28 = tail call range(i64 0, 65) i64 @llvm.ctlz.i64(i64 %27, i1 true)
  %29 = xor i64 %28, 63
  %30 = mul nuw nsw i64 %29, 9
  %31 = add nuw nsw i64 %30, 73
  %32 = lshr i64 %31, 6
  %33 = add i64 %.1, 1
  %34 = add i64 %33, %32
  br label %35

35:                                               ; preds = %22, %24, %1
  %.010 = phi i64 [ %34, %24 ], [ %.1, %22 ], [ 0, %1 ]
  %36 = getelementptr inbounds nuw i8, ptr %0, i64 8
  %37 = load ptr, ptr %36, align 8, !tbaa !4
  %38 = ptrtoint ptr %37 to i64
  %39 = and i64 %38, 1
  %.not13 = icmp eq i64 %39, 0
  br i1 %.not13, label %43, label %40, !prof !11

40:                                               ; preds = %35
  %41 = getelementptr inbounds nuw i8, ptr %0, i64 20
  %42 = tail call noundef i64 @_ZN6google8protobuf8internal24ComputeUnknownFieldsSizeERKNS1_16InternalMetadataEmPNS1_10CachedSizeE(ptr noundef nonnull align 8 dereferenceable(8) %36, i64 noundef %.010, ptr noundef nonnull %41)
  br label %46

43:                                               ; preds = %35
  %44 = trunc i64 %.010 to i32
  %45 = getelementptr inbounds nuw i8, ptr %0, i64 20
  store atomic i32 %44, ptr %45 monotonic, align 4
  br label %46

46:                                               ; preds = %43, %40
  %.0 = phi i64 [ %42, %40 ], [ %.010, %43 ]
  ret i64 %.0
}